; Function Attrs: nounwind uwtable
define dso_local noundef ptr @MakeSingleTupleTableSlot(ptr noundef %0, ptr noundef %1) local_unnamed_addr #1 {
  %3 = load i64, ptr %1, align 8
  %.not.i = icmp eq ptr %0, null
  br i1 %.not.i, label %14, label %4

4:                                                ; preds = %2
  %5 = add i64 %3, 7
  %6 = and i64 %5, -8
  %7 = load i32, ptr %0, align 8
  %8 = sext i32 %7 to i64
  %9 = shl nsw i64 %8, 3
  %10 = add i64 %9, %6
  %11 = add nsw i64 %8, 7
  %12 = and i64 %11, -8
  %13 = add i64 %10, %12
  br label %14

14:                                               ; preds = %4, %2
  %spec.select.v.i = phi i16 [ 18, %4 ], [ 2, %2 ]
  %.0.i = phi i64 [ %13, %4 ], [ %3, %2 ]
  %15 = tail call ptr @palloc0(i64 noundef %.0.i) #14
  %16 = getelementptr inbounds nuw i8, ptr %15, i64 8
  store ptr %1, ptr %16, align 8
  store i32 442, ptr %15, align 8
  %17 = getelementptr inbounds nuw i8, ptr %15, i64 4
  %18 = load i16, ptr %17, align 4
  %spec.select.i = or i16 %18, %spec.select.v.i
  store i16 %spec.select.i, ptr %17, align 4
  %19 = getelementptr inbounds nuw i8, ptr %15, i64 16
  store ptr %0, ptr %19, align 8
  %20 = load ptr, ptr @CurrentMemoryContext, align 8
  %21 = getelementptr inbounds nuw i8, ptr %15, i64 40
  store ptr %20, ptr %21, align 8
  %22 = getelementptr inbounds nuw i8, ptr %15, i64 6
  store i16 0, ptr %22, align 2
  br i1 %.not.i, label %MakeTupleTableSlot.exit, label %23

23:                                               ; preds = %14
  %24 = add i64 %3, 7
  %25 = and i64 %24, -8
  %26 = getelementptr inbounds nuw i8, ptr %15, i64 %25
  %27 = getelementptr inbounds nuw i8, ptr %15, i64 24
  store ptr %26, ptr %27, align 8
  %28 = load i32, ptr %0, align 8
  %29 = sext i32 %28 to i64
  %30 = shl nsw i64 %29, 3
  %31 = getelementptr inbounds nuw i8, ptr %26, i64 %30
  %32 = getelementptr inbounds nuw i8, ptr %15, i64 32
  store ptr %31, ptr %32, align 8
  %33 = getelementptr inbounds nuw i8, ptr %0, i64 12
  %34 = load i32, ptr %33, align 4
  %35 = icmp sgt i32 %34, -1
  br i1 %35, label %36, label %MakeTupleTableSlot.exit

36:                                               ; preds = %23
  tail call void @IncrTupleDescRefCount(ptr noundef nonnull %0) #14
  %.pre.i = load ptr, ptr %16, align 8
  br label %MakeTupleTableSlot.exit

MakeTupleTableSlot.exit:                          ; preds = %14, %23, %36
  %37 = phi ptr [ %1, %23 ], [ %.pre.i, %36 ], [ %1, %14 ]
  %38 = getelementptr inbounds nuw i8, ptr %37, i64 8
  %39 = load ptr, ptr %38, align 8
  tail call void %39(ptr noundef nonnull %15) #14
  ret ptr %15
}